
fib:     file format elf32-tradlittlemips


Disassembly of section IROM:

00400000 <__start>:
  400000:	3c1c1001 	lui	gp,0x1001
  400004:	279c8010 	addiu	gp,gp,-32752
  400008:	3c1d7fff 	lui	sp,0x7fff
  40000c:	37bdfffc 	ori	sp,sp,0xfffc
  400010:	0000d020 	add	k0,zero,zero
  400014:	00001820 	add	v1,zero,zero
  400018:	0c10022e 	jal	4008b8 <runme>
  40001c:	00000000 	nop

00400020 <__start_loop>:
	...
  400028:	0c100008 	jal	400020 <__start_loop>
  40002c:	00000000 	nop

00400030 <print>:
  400030:	27bdffe8 	addiu	sp,sp,-24
  400034:	afbf0014 	sw	ra,20(sp)
  400038:	afbe0010 	sw	s8,16(sp)
  40003c:	03a0f021 	move	s8,sp
  400040:	afc40018 	sw	a0,24(s8)
  400044:	0810001e 	j	400078 <print+0x48>
  400048:	00000000 	nop
  40004c:	8fc20018 	lw	v0,24(s8)
  400050:	00000000 	nop
  400054:	80420000 	lb	v0,0(v0)
  400058:	00000000 	nop
  40005c:	00402021 	move	a0,v0
  400060:	0c10023a 	jal	4008e8 <SendByte>
  400064:	00000000 	nop
  400068:	8fc20018 	lw	v0,24(s8)
  40006c:	00000000 	nop
  400070:	24420001 	addiu	v0,v0,1
  400074:	afc20018 	sw	v0,24(s8)
  400078:	8fc20018 	lw	v0,24(s8)
  40007c:	00000000 	nop
  400080:	80420000 	lb	v0,0(v0)
  400084:	00000000 	nop
  400088:	1440fff0 	bnez	v0,40004c <print+0x1c>
  40008c:	00000000 	nop
  400090:	03c0e821 	move	sp,s8
  400094:	8fbf0014 	lw	ra,20(sp)
  400098:	8fbe0010 	lw	s8,16(sp)
  40009c:	27bd0018 	addiu	sp,sp,24
  4000a0:	03e00008 	jr	ra
  4000a4:	00000000 	nop

004000a8 <fib>:
  4000a8:	27bdffb0 	addiu	sp,sp,-80
  4000ac:	afbf004c 	sw	ra,76(sp)
  4000b0:	afbe0048 	sw	s8,72(sp)
  4000b4:	03a0f021 	move	s8,sp
  4000b8:	afc40050 	sw	a0,80(s8)
  4000bc:	afc00020 	sw	zero,32(s8)
  4000c0:	24020001 	li	v0,1
  4000c4:	afc2001c 	sw	v0,28(s8)
  4000c8:	8fc20050 	lw	v0,80(s8)
  4000cc:	00000000 	nop
  4000d0:	afc20014 	sw	v0,20(s8)
  4000d4:	0810004f 	j	40013c <fib+0x94>
  4000d8:	00000000 	nop
  4000dc:	27c20024 	addiu	v0,s8,36
  4000e0:	8fc40020 	lw	a0,32(s8)
  4000e4:	00402821 	move	a1,v0
  4000e8:	2406000a 	li	a2,10
  4000ec:	0c1001de 	jal	400778 <int_to_string>
  4000f0:	00000000 	nop
  4000f4:	00402021 	move	a0,v0
  4000f8:	0c10000c 	jal	400030 <print>
  4000fc:	00000000 	nop
  400100:	8fc30020 	lw	v1,32(s8)
  400104:	8fc2001c 	lw	v0,28(s8)
  400108:	00000000 	nop
  40010c:	00621021 	addu	v0,v1,v0
  400110:	afc20018 	sw	v0,24(s8)
  400114:	8fc2001c 	lw	v0,28(s8)
  400118:	00000000 	nop
  40011c:	afc20020 	sw	v0,32(s8)
  400120:	8fc20018 	lw	v0,24(s8)
  400124:	00000000 	nop
  400128:	afc2001c 	sw	v0,28(s8)
  40012c:	8fc20014 	lw	v0,20(s8)
  400130:	00000000 	nop
  400134:	2442ffff 	addiu	v0,v0,-1
  400138:	afc20014 	sw	v0,20(s8)
  40013c:	8fc20014 	lw	v0,20(s8)
  400140:	00000000 	nop
  400144:	1c40ffe5 	bgtz	v0,4000dc <fib+0x34>
  400148:	00000000 	nop
  40014c:	00001021 	move	v0,zero
  400150:	03c0e821 	move	sp,s8
  400154:	8fbf004c 	lw	ra,76(sp)
  400158:	8fbe0048 	lw	s8,72(sp)
  40015c:	27bd0050 	addiu	sp,sp,80
  400160:	03e00008 	jr	ra
  400164:	00000000 	nop

00400168 <main>:
  400168:	27bdffe8 	addiu	sp,sp,-24
  40016c:	afbf0014 	sw	ra,20(sp)
  400170:	afbe0010 	sw	s8,16(sp)
  400174:	03a0f021 	move	s8,sp
  400178:	3c021000 	lui	v0,0x1000
  40017c:	24440000 	addiu	a0,v0,0
  400180:	0c10000c 	jal	400030 <print>
  400184:	00000000 	nop
  400188:	2404000a 	li	a0,10
  40018c:	0c10002a 	jal	4000a8 <fib>
  400190:	00000000 	nop
  400194:	3c021000 	lui	v0,0x1000
  400198:	24440004 	addiu	a0,v0,4
  40019c:	0c10000c 	jal	400030 <print>
  4001a0:	00000000 	nop
  4001a4:	00001021 	move	v0,zero
  4001a8:	03c0e821 	move	sp,s8
  4001ac:	8fbf0014 	lw	ra,20(sp)
  4001b0:	8fbe0010 	lw	s8,16(sp)
  4001b4:	27bd0018 	addiu	sp,sp,24
  4001b8:	03e00008 	jr	ra
  4001bc:	00000000 	nop

004001c0 <nonRestoringDivision>:
  4001c0:	27bdfff0 	addiu	sp,sp,-16
  4001c4:	afbe000c 	sw	s8,12(sp)
  4001c8:	03a0f021 	move	s8,sp
  4001cc:	afc40010 	sw	a0,16(s8)
  4001d0:	afc50014 	sw	a1,20(s8)
  4001d4:	afc60018 	sw	a2,24(s8)
  4001d8:	afc00004 	sw	zero,4(s8)
  4001dc:	8fc20018 	lw	v0,24(s8)
  4001e0:	00000000 	nop
  4001e4:	ac400000 	sw	zero,0(v0)
  4001e8:	2402001f 	li	v0,31
  4001ec:	afc20000 	sw	v0,0(s8)
  4001f0:	081000af 	j	4002bc <nonRestoringDivision+0xfc>
  4001f4:	00000000 	nop
  4001f8:	8fc20004 	lw	v0,4(s8)
  4001fc:	00000000 	nop
  400200:	00021840 	sll	v1,v0,0x1
  400204:	8fc40010 	lw	a0,16(s8)
  400208:	8fc20000 	lw	v0,0(s8)
  40020c:	00000000 	nop
  400210:	00441007 	srav	v0,a0,v0
  400214:	30420001 	andi	v0,v0,0x1
  400218:	00621025 	or	v0,v1,v0
  40021c:	afc20004 	sw	v0,4(s8)
  400220:	8fc20004 	lw	v0,4(s8)
  400224:	00000000 	nop
  400228:	04410007 	bgez	v0,400248 <nonRestoringDivision+0x88>
  40022c:	00000000 	nop
  400230:	8fc30004 	lw	v1,4(s8)
  400234:	8fc20014 	lw	v0,20(s8)
  400238:	00000000 	nop
  40023c:	00621021 	addu	v0,v1,v0
  400240:	08100096 	j	400258 <nonRestoringDivision+0x98>
  400244:	00000000 	nop
  400248:	8fc30004 	lw	v1,4(s8)
  40024c:	8fc20014 	lw	v0,20(s8)
  400250:	00000000 	nop
  400254:	00621023 	subu	v0,v1,v0
  400258:	afc20004 	sw	v0,4(s8)
  40025c:	8fc20004 	lw	v0,4(s8)
  400260:	00000000 	nop
  400264:	04400009 	bltz	v0,40028c <nonRestoringDivision+0xcc>
  400268:	00000000 	nop
  40026c:	8fc20018 	lw	v0,24(s8)
  400270:	00000000 	nop
  400274:	8c420000 	lw	v0,0(v0)
  400278:	00000000 	nop
  40027c:	00021040 	sll	v0,v0,0x1
  400280:	34420001 	ori	v0,v0,0x1
  400284:	081000a8 	j	4002a0 <nonRestoringDivision+0xe0>
  400288:	00000000 	nop
  40028c:	8fc20018 	lw	v0,24(s8)
  400290:	00000000 	nop
  400294:	8c420000 	lw	v0,0(v0)
  400298:	00000000 	nop
  40029c:	00021040 	sll	v0,v0,0x1
  4002a0:	8fc30018 	lw	v1,24(s8)
  4002a4:	00000000 	nop
  4002a8:	ac620000 	sw	v0,0(v1)
  4002ac:	8fc20000 	lw	v0,0(s8)
  4002b0:	00000000 	nop
  4002b4:	2442ffff 	addiu	v0,v0,-1
  4002b8:	afc20000 	sw	v0,0(s8)
  4002bc:	8fc20000 	lw	v0,0(s8)
  4002c0:	00000000 	nop
  4002c4:	0441ffcc 	bgez	v0,4001f8 <nonRestoringDivision+0x38>
  4002c8:	00000000 	nop
  4002cc:	8fc20004 	lw	v0,4(s8)
  4002d0:	00000000 	nop
  4002d4:	04410007 	bgez	v0,4002f4 <nonRestoringDivision+0x134>
  4002d8:	00000000 	nop
  4002dc:	8fc30004 	lw	v1,4(s8)
  4002e0:	8fc20014 	lw	v0,20(s8)
  4002e4:	00000000 	nop
  4002e8:	00621021 	addu	v0,v1,v0
  4002ec:	081000bf 	j	4002fc <nonRestoringDivision+0x13c>
  4002f0:	00000000 	nop
  4002f4:	8fc20004 	lw	v0,4(s8)
  4002f8:	00000000 	nop
  4002fc:	afc20004 	sw	v0,4(s8)
  400300:	8fc20004 	lw	v0,4(s8)
  400304:	03c0e821 	move	sp,s8
  400308:	8fbe000c 	lw	s8,12(sp)
  40030c:	27bd0010 	addiu	sp,sp,16
  400310:	03e00008 	jr	ra
  400314:	00000000 	nop

00400318 <modifiedBoothsMultiplication>:
  400318:	27bdffa0 	addiu	sp,sp,-96
  40031c:	afbe005c 	sw	s8,92(sp)
  400320:	03a0f021 	move	s8,sp
  400324:	afc40060 	sw	a0,96(s8)
  400328:	afc50064 	sw	a1,100(s8)
  40032c:	afc60068 	sw	a2,104(s8)
  400330:	24020001 	li	v0,1
  400334:	afc20014 	sw	v0,20(s8)
  400338:	afc00018 	sw	zero,24(s8)
  40033c:	afc0001c 	sw	zero,28(s8)
  400340:	24020001 	li	v0,1
  400344:	afc20020 	sw	v0,32(s8)
  400348:	24020001 	li	v0,1
  40034c:	afc20024 	sw	v0,36(s8)
  400350:	2402ffff 	li	v0,-1
  400354:	afc20028 	sw	v0,40(s8)
  400358:	2402ffff 	li	v0,-1
  40035c:	afc2002c 	sw	v0,44(s8)
  400360:	24020001 	li	v0,1
  400364:	afc20030 	sw	v0,48(s8)
  400368:	afc00034 	sw	zero,52(s8)
  40036c:	afc00038 	sw	zero,56(s8)
  400370:	afc0003c 	sw	zero,60(s8)
  400374:	24020001 	li	v0,1
  400378:	afc20040 	sw	v0,64(s8)
  40037c:	afc00044 	sw	zero,68(s8)
  400380:	24020001 	li	v0,1
  400384:	afc20048 	sw	v0,72(s8)
  400388:	24020001 	li	v0,1
  40038c:	afc2004c 	sw	v0,76(s8)
  400390:	24020001 	li	v0,1
  400394:	afc20050 	sw	v0,80(s8)
  400398:	8fc20068 	lw	v0,104(s8)
  40039c:	00000000 	nop
  4003a0:	ac400000 	sw	zero,0(v0)
  4003a4:	afc0000c 	sw	zero,12(s8)
  4003a8:	afc00010 	sw	zero,16(s8)
  4003ac:	08100122 	j	400488 <modifiedBoothsMultiplication+0x170>
  4003b0:	00000000 	nop
  4003b4:	8fc20064 	lw	v0,100(s8)
  4003b8:	00000000 	nop
  4003bc:	30420003 	andi	v0,v0,0x3
  4003c0:	00021840 	sll	v1,v0,0x1
  4003c4:	8fc2000c 	lw	v0,12(s8)
  4003c8:	00000000 	nop
  4003cc:	00621025 	or	v0,v1,v0
  4003d0:	afc20008 	sw	v0,8(s8)
  4003d4:	8fc20008 	lw	v0,8(s8)
  4003d8:	00000000 	nop
  4003dc:	00021080 	sll	v0,v0,0x2
  4003e0:	03c21021 	addu	v0,s8,v0
  4003e4:	8c420014 	lw	v0,20(v0)
  4003e8:	00000000 	nop
  4003ec:	afc20004 	sw	v0,4(s8)
  4003f0:	8fc30004 	lw	v1,4(s8)
  4003f4:	24020001 	li	v0,1
  4003f8:	10620014 	beq	v1,v0,40044c <modifiedBoothsMultiplication+0x134>
  4003fc:	00000000 	nop
  400400:	8fc30004 	lw	v1,4(s8)
  400404:	8fc20060 	lw	v0,96(s8)
  400408:	00000000 	nop
  40040c:	00621826 	xor	v1,v1,v0
  400410:	8fc20004 	lw	v0,4(s8)
  400414:	00000000 	nop
  400418:	00621023 	subu	v0,v1,v0
  40041c:	afc20000 	sw	v0,0(s8)
  400420:	8fc20068 	lw	v0,104(s8)
  400424:	00000000 	nop
  400428:	8c430000 	lw	v1,0(v0)
  40042c:	8fc40000 	lw	a0,0(s8)
  400430:	8fc20010 	lw	v0,16(s8)
  400434:	00000000 	nop
  400438:	00441004 	sllv	v0,a0,v0
  40043c:	00621821 	addu	v1,v1,v0
  400440:	8fc20068 	lw	v0,104(s8)
  400444:	00000000 	nop
  400448:	ac430000 	sw	v1,0(v0)
  40044c:	8fc20008 	lw	v0,8(s8)
  400450:	00000000 	nop
  400454:	00021080 	sll	v0,v0,0x2
  400458:	03c21021 	addu	v0,s8,v0
  40045c:	8c420034 	lw	v0,52(v0)
  400460:	00000000 	nop
  400464:	afc2000c 	sw	v0,12(s8)
  400468:	8fc20064 	lw	v0,100(s8)
  40046c:	00000000 	nop
  400470:	00021043 	sra	v0,v0,0x1
  400474:	afc20064 	sw	v0,100(s8)
  400478:	8fc20010 	lw	v0,16(s8)
  40047c:	00000000 	nop
  400480:	24420001 	addiu	v0,v0,1
  400484:	afc20010 	sw	v0,16(s8)
  400488:	8fc20010 	lw	v0,16(s8)
  40048c:	00000000 	nop
  400490:	2842001f 	slti	v0,v0,31
  400494:	1440ffc7 	bnez	v0,4003b4 <modifiedBoothsMultiplication+0x9c>
  400498:	00000000 	nop
  40049c:	8fc20068 	lw	v0,104(s8)
  4004a0:	00000000 	nop
  4004a4:	8c420000 	lw	v0,0(v0)
  4004a8:	03c0e821 	move	sp,s8
  4004ac:	8fbe005c 	lw	s8,92(sp)
  4004b0:	27bd0060 	addiu	sp,sp,96
  4004b4:	03e00008 	jr	ra
  4004b8:	00000000 	nop

004004bc <division>:
  4004bc:	27bdfff8 	addiu	sp,sp,-8
  4004c0:	afbe0004 	sw	s8,4(sp)
  4004c4:	03a0f021 	move	s8,sp
  4004c8:	afc40008 	sw	a0,8(s8)
  4004cc:	afc5000c 	sw	a1,12(s8)
  4004d0:	afc60010 	sw	a2,16(s8)
  4004d4:	8fc20010 	lw	v0,16(s8)
  4004d8:	00000000 	nop
  4004dc:	ac400000 	sw	zero,0(v0)
  4004e0:	08100147 	j	40051c <division+0x60>
  4004e4:	00000000 	nop
  4004e8:	8fc20010 	lw	v0,16(s8)
  4004ec:	00000000 	nop
  4004f0:	8c420000 	lw	v0,0(v0)
  4004f4:	00000000 	nop
  4004f8:	24430001 	addiu	v1,v0,1
  4004fc:	8fc20010 	lw	v0,16(s8)
  400500:	00000000 	nop
  400504:	ac430000 	sw	v1,0(v0)
  400508:	8fc30008 	lw	v1,8(s8)
  40050c:	8fc2000c 	lw	v0,12(s8)
  400510:	00000000 	nop
  400514:	00621023 	subu	v0,v1,v0
  400518:	afc20008 	sw	v0,8(s8)
  40051c:	8fc30008 	lw	v1,8(s8)
  400520:	8fc2000c 	lw	v0,12(s8)
  400524:	00000000 	nop
  400528:	0062102a 	slt	v0,v1,v0
  40052c:	1040ffee 	beqz	v0,4004e8 <division+0x2c>
  400530:	00000000 	nop
  400534:	8fc20008 	lw	v0,8(s8)
  400538:	03c0e821 	move	sp,s8
  40053c:	8fbe0004 	lw	s8,4(sp)
  400540:	27bd0008 	addiu	sp,sp,8
  400544:	03e00008 	jr	ra
  400548:	00000000 	nop

0040054c <multiplication>:
  40054c:	27bdfff8 	addiu	sp,sp,-8
  400550:	afbe0004 	sw	s8,4(sp)
  400554:	03a0f021 	move	s8,sp
  400558:	afc40008 	sw	a0,8(s8)
  40055c:	afc5000c 	sw	a1,12(s8)
  400560:	afc60010 	sw	a2,16(s8)
  400564:	8fc20010 	lw	v0,16(s8)
  400568:	00000000 	nop
  40056c:	ac400000 	sw	zero,0(v0)
  400570:	0810016b 	j	4005ac <multiplication+0x60>
  400574:	00000000 	nop
  400578:	8fc20010 	lw	v0,16(s8)
  40057c:	00000000 	nop
  400580:	8c430000 	lw	v1,0(v0)
  400584:	8fc2000c 	lw	v0,12(s8)
  400588:	00000000 	nop
  40058c:	00621821 	addu	v1,v1,v0
  400590:	8fc20010 	lw	v0,16(s8)
  400594:	00000000 	nop
  400598:	ac430000 	sw	v1,0(v0)
  40059c:	8fc20008 	lw	v0,8(s8)
  4005a0:	00000000 	nop
  4005a4:	2442ffff 	addiu	v0,v0,-1
  4005a8:	afc20008 	sw	v0,8(s8)
  4005ac:	8fc20008 	lw	v0,8(s8)
  4005b0:	00000000 	nop
  4005b4:	1440fff0 	bnez	v0,400578 <multiplication+0x2c>
  4005b8:	00000000 	nop
  4005bc:	03c0e821 	move	sp,s8
  4005c0:	8fbe0004 	lw	s8,4(sp)
  4005c4:	27bd0008 	addiu	sp,sp,8
  4005c8:	03e00008 	jr	ra
  4005cc:	00000000 	nop

004005d0 <strlen>:
  4005d0:	27bdfff0 	addiu	sp,sp,-16
  4005d4:	afbe000c 	sw	s8,12(sp)
  4005d8:	03a0f021 	move	s8,sp
  4005dc:	afc40010 	sw	a0,16(s8)
  4005e0:	8fc20010 	lw	v0,16(s8)
  4005e4:	00000000 	nop
  4005e8:	afc20000 	sw	v0,0(s8)
  4005ec:	08100181 	j	400604 <strlen+0x34>
  4005f0:	00000000 	nop
  4005f4:	8fc20000 	lw	v0,0(s8)
  4005f8:	00000000 	nop
  4005fc:	24420001 	addiu	v0,v0,1
  400600:	afc20000 	sw	v0,0(s8)
  400604:	8fc20000 	lw	v0,0(s8)
  400608:	00000000 	nop
  40060c:	80420000 	lb	v0,0(v0)
  400610:	00000000 	nop
  400614:	1440fff7 	bnez	v0,4005f4 <strlen+0x24>
  400618:	00000000 	nop
  40061c:	8fc30000 	lw	v1,0(s8)
  400620:	8fc20010 	lw	v0,16(s8)
  400624:	00000000 	nop
  400628:	00621023 	subu	v0,v1,v0
  40062c:	03c0e821 	move	sp,s8
  400630:	8fbe000c 	lw	s8,12(sp)
  400634:	27bd0010 	addiu	sp,sp,16
  400638:	03e00008 	jr	ra
  40063c:	00000000 	nop

00400640 <strrev>:
  400640:	27bdffe0 	addiu	sp,sp,-32
  400644:	afbf001c 	sw	ra,28(sp)
  400648:	afbe0018 	sw	s8,24(sp)
  40064c:	03a0f021 	move	s8,sp
  400650:	afc40020 	sw	a0,32(s8)
  400654:	8fc20020 	lw	v0,32(s8)
  400658:	00000000 	nop
  40065c:	afc20014 	sw	v0,20(s8)
  400660:	8fc40020 	lw	a0,32(s8)
  400664:	0c100174 	jal	4005d0 <strlen>
  400668:	00000000 	nop
  40066c:	2442ffff 	addiu	v0,v0,-1
  400670:	8fc30020 	lw	v1,32(s8)
  400674:	00000000 	nop
  400678:	00621021 	addu	v0,v1,v0
  40067c:	afc20010 	sw	v0,16(s8)
  400680:	081001d1 	j	400744 <strrev+0x104>
  400684:	00000000 	nop
  400688:	8fc20014 	lw	v0,20(s8)
  40068c:	00000000 	nop
  400690:	80430000 	lb	v1,0(v0)
  400694:	8fc20010 	lw	v0,16(s8)
  400698:	00000000 	nop
  40069c:	80420000 	lb	v0,0(v0)
  4006a0:	00000000 	nop
  4006a4:	00621026 	xor	v0,v1,v0
  4006a8:	00021e00 	sll	v1,v0,0x18
  4006ac:	00031e03 	sra	v1,v1,0x18
  4006b0:	8fc20014 	lw	v0,20(s8)
  4006b4:	00000000 	nop
  4006b8:	a0430000 	sb	v1,0(v0)
  4006bc:	8fc20010 	lw	v0,16(s8)
  4006c0:	00000000 	nop
  4006c4:	80430000 	lb	v1,0(v0)
  4006c8:	8fc20014 	lw	v0,20(s8)
  4006cc:	00000000 	nop
  4006d0:	80420000 	lb	v0,0(v0)
  4006d4:	00000000 	nop
  4006d8:	00621026 	xor	v0,v1,v0
  4006dc:	00021e00 	sll	v1,v0,0x18
  4006e0:	00031e03 	sra	v1,v1,0x18
  4006e4:	8fc20010 	lw	v0,16(s8)
  4006e8:	00000000 	nop
  4006ec:	a0430000 	sb	v1,0(v0)
  4006f0:	8fc20014 	lw	v0,20(s8)
  4006f4:	00000000 	nop
  4006f8:	80430000 	lb	v1,0(v0)
  4006fc:	8fc20010 	lw	v0,16(s8)
  400700:	00000000 	nop
  400704:	80420000 	lb	v0,0(v0)
  400708:	00000000 	nop
  40070c:	00621026 	xor	v0,v1,v0
  400710:	00021e00 	sll	v1,v0,0x18
  400714:	00031e03 	sra	v1,v1,0x18
  400718:	8fc20014 	lw	v0,20(s8)
  40071c:	00000000 	nop
  400720:	a0430000 	sb	v1,0(v0)
  400724:	8fc20014 	lw	v0,20(s8)
  400728:	00000000 	nop
  40072c:	24420001 	addiu	v0,v0,1
  400730:	afc20014 	sw	v0,20(s8)
  400734:	8fc20010 	lw	v0,16(s8)
  400738:	00000000 	nop
  40073c:	2442ffff 	addiu	v0,v0,-1
  400740:	afc20010 	sw	v0,16(s8)
  400744:	8fc30010 	lw	v1,16(s8)
  400748:	8fc20014 	lw	v0,20(s8)
  40074c:	00000000 	nop
  400750:	0043102b 	sltu	v0,v0,v1
  400754:	1440ffcc 	bnez	v0,400688 <strrev+0x48>
  400758:	00000000 	nop
  40075c:	8fc20020 	lw	v0,32(s8)
  400760:	03c0e821 	move	sp,s8
  400764:	8fbf001c 	lw	ra,28(sp)
  400768:	8fbe0018 	lw	s8,24(sp)
  40076c:	27bd0020 	addiu	sp,sp,32
  400770:	03e00008 	jr	ra
  400774:	00000000 	nop

00400778 <int_to_string>:
  400778:	27bdffd0 	addiu	sp,sp,-48
  40077c:	afbf002c 	sw	ra,44(sp)
  400780:	afbe0028 	sw	s8,40(sp)
  400784:	03a0f021 	move	s8,sp
  400788:	afc40030 	sw	a0,48(s8)
  40078c:	afc50034 	sw	a1,52(s8)
  400790:	afc60038 	sw	a2,56(s8)
  400794:	24020030 	li	v0,48
  400798:	a3c20018 	sb	v0,24(s8)
  40079c:	24020031 	li	v0,49
  4007a0:	a3c20019 	sb	v0,25(s8)
  4007a4:	24020032 	li	v0,50
  4007a8:	a3c2001a 	sb	v0,26(s8)
  4007ac:	24020033 	li	v0,51
  4007b0:	a3c2001b 	sb	v0,27(s8)
  4007b4:	24020034 	li	v0,52
  4007b8:	a3c2001c 	sb	v0,28(s8)
  4007bc:	24020035 	li	v0,53
  4007c0:	a3c2001d 	sb	v0,29(s8)
  4007c4:	24020036 	li	v0,54
  4007c8:	a3c2001e 	sb	v0,30(s8)
  4007cc:	24020037 	li	v0,55
  4007d0:	a3c2001f 	sb	v0,31(s8)
  4007d4:	24020038 	li	v0,56
  4007d8:	a3c20020 	sb	v0,32(s8)
  4007dc:	24020039 	li	v0,57
  4007e0:	a3c20021 	sb	v0,33(s8)
  4007e4:	afc00014 	sw	zero,20(s8)
  4007e8:	8fc20014 	lw	v0,20(s8)
  4007ec:	8fc30034 	lw	v1,52(s8)
  4007f0:	00000000 	nop
  4007f4:	00621021 	addu	v0,v1,v0
  4007f8:	2403000a 	li	v1,10
  4007fc:	a0430000 	sb	v1,0(v0)
  400800:	8fc20014 	lw	v0,20(s8)
  400804:	00000000 	nop
  400808:	24420001 	addiu	v0,v0,1
  40080c:	afc20014 	sw	v0,20(s8)
  400810:	27c20024 	addiu	v0,s8,36
  400814:	8fc40030 	lw	a0,48(s8)
  400818:	8fc50038 	lw	a1,56(s8)
  40081c:	00403021 	move	a2,v0
  400820:	0c100070 	jal	4001c0 <nonRestoringDivision>
  400824:	00000000 	nop
  400828:	afc20010 	sw	v0,16(s8)
  40082c:	8fc20014 	lw	v0,20(s8)
  400830:	8fc30034 	lw	v1,52(s8)
  400834:	00000000 	nop
  400838:	00621021 	addu	v0,v1,v0
  40083c:	8fc30010 	lw	v1,16(s8)
  400840:	27c40010 	addiu	a0,s8,16
  400844:	00831821 	addu	v1,a0,v1
  400848:	80630008 	lb	v1,8(v1)
  40084c:	00000000 	nop
  400850:	a0430000 	sb	v1,0(v0)
  400854:	8fc20014 	lw	v0,20(s8)
  400858:	00000000 	nop
  40085c:	24420001 	addiu	v0,v0,1
  400860:	afc20014 	sw	v0,20(s8)
  400864:	8fc20024 	lw	v0,36(s8)
  400868:	00000000 	nop
  40086c:	afc20030 	sw	v0,48(s8)
  400870:	8fc20030 	lw	v0,48(s8)
  400874:	00000000 	nop
  400878:	1c40ffe5 	bgtz	v0,400810 <int_to_string+0x98>
  40087c:	00000000 	nop
  400880:	8fc20014 	lw	v0,20(s8)
  400884:	8fc30034 	lw	v1,52(s8)
  400888:	00000000 	nop
  40088c:	00621021 	addu	v0,v1,v0
  400890:	a0400000 	sb	zero,0(v0)
  400894:	8fc40034 	lw	a0,52(s8)
  400898:	0c100190 	jal	400640 <strrev>
  40089c:	00000000 	nop
  4008a0:	03c0e821 	move	sp,s8
  4008a4:	8fbf002c 	lw	ra,44(sp)
  4008a8:	8fbe0028 	lw	s8,40(sp)
  4008ac:	27bd0030 	addiu	sp,sp,48
  4008b0:	03e00008 	jr	ra
  4008b4:	00000000 	nop

004008b8 <runme>:
  4008b8:	27bdffe8 	addiu	sp,sp,-24
  4008bc:	afbf0014 	sw	ra,20(sp)
  4008c0:	afbe0010 	sw	s8,16(sp)
  4008c4:	03a0f021 	move	s8,sp
  4008c8:	0c10005a 	jal	400168 <main>
  4008cc:	00000000 	nop
  4008d0:	03c0e821 	move	sp,s8
  4008d4:	8fbf0014 	lw	ra,20(sp)
  4008d8:	8fbe0010 	lw	s8,16(sp)
  4008dc:	27bd0018 	addiu	sp,sp,24
  4008e0:	03e00008 	jr	ra
  4008e4:	00000000 	nop

004008e8 <SendByte>:
  4008e8:	27bdfff0 	addiu	sp,sp,-16
  4008ec:	afbe000c 	sw	s8,12(sp)
  4008f0:	03a0f021 	move	s8,sp
  4008f4:	00801021 	move	v0,a0
  4008f8:	a3c20010 	sb	v0,16(s8)
  4008fc:	3c02ffff 	lui	v0,0xffff
  400900:	34420008 	ori	v0,v0,0x8
  400904:	afc20004 	sw	v0,4(s8)
  400908:	3c02ffff 	lui	v0,0xffff
  40090c:	3442000c 	ori	v0,v0,0xc
  400910:	afc20000 	sw	v0,0(s8)
  400914:	8fc20004 	lw	v0,4(s8)
  400918:	00000000 	nop
  40091c:	8c420000 	lw	v0,0(v0)
  400920:	00000000 	nop
  400924:	30420001 	andi	v0,v0,0x1
  400928:	1040fffa 	beqz	v0,400914 <SendByte+0x2c>
  40092c:	00000000 	nop
  400930:	83c30010 	lb	v1,16(s8)
  400934:	8fc20000 	lw	v0,0(s8)
  400938:	00000000 	nop
  40093c:	ac430000 	sw	v1,0(v0)
  400940:	03c0e821 	move	sp,s8
  400944:	8fbe000c 	lw	s8,12(sp)
  400948:	27bd0010 	addiu	sp,sp,16
  40094c:	03e00008 	jr	ra
  400950:	00000000 	nop

00400954 <GetByte>:
  400954:	27bdffe8 	addiu	sp,sp,-24
  400958:	afbe0014 	sw	s8,20(sp)
  40095c:	03a0f021 	move	s8,sp
  400960:	3c02ffff 	lui	v0,0xffff
  400964:	afc20004 	sw	v0,4(s8)
  400968:	3c02ffff 	lui	v0,0xffff
  40096c:	34420004 	ori	v0,v0,0x4
  400970:	afc20000 	sw	v0,0(s8)
  400974:	8fc20004 	lw	v0,4(s8)
  400978:	00000000 	nop
  40097c:	8c420000 	lw	v0,0(v0)
  400980:	00000000 	nop
  400984:	30420001 	andi	v0,v0,0x1
  400988:	1040fffa 	beqz	v0,400974 <GetByte+0x20>
  40098c:	00000000 	nop
  400990:	8fc20000 	lw	v0,0(s8)
  400994:	00000000 	nop
  400998:	8c420000 	lw	v0,0(v0)
  40099c:	00000000 	nop
  4009a0:	a3c20008 	sb	v0,8(s8)
  4009a4:	83c20008 	lb	v0,8(s8)
  4009a8:	03c0e821 	move	sp,s8
  4009ac:	8fbe0014 	lw	s8,20(sp)
  4009b0:	27bd0018 	addiu	sp,sp,24
  4009b4:	03e00008 	jr	ra
  4009b8:	00000000 	nop
  4009bc:	00000000 	nop

Disassembly of section RAM:

10000000 <_gp-0x8010>:
10000000:	00000a53 	0xa53
10000004:	00000a45 	0xa45
	...
