
hello_world:     file format elf32-tradlittlemips


Disassembly of section IROM:

00400000 <__start>:
  400000:	3c1c1001 	lui	gp,0x1001
  400004:	279c8010 	addiu	gp,gp,-32752
  400008:	3c1d7fff 	lui	sp,0x7fff
  40000c:	37bdfffc 	ori	sp,sp,0xfffc
  400010:	0000d020 	add	k0,zero,zero
  400014:	00001820 	add	v1,zero,zero
  400018:	0c1000ee 	jal	4003b8 <runme>
  40001c:	00000000 	nop

00400020 <__start_loop>:
	...
  400028:	0c100008 	jal	400020 <__start_loop>
  40002c:	00000000 	nop

00400030 <print>:
  400030:	27bdffe8 	addiu	sp,sp,-24
  400034:	afb00010 	sw	s0,16(sp)
  400038:	afbf0014 	sw	ra,20(sp)
  40003c:	00808021 	move	s0,a0
  400040:	80840000 	lb	a0,0(a0)
  400044:	00000000 	nop
  400048:	10800007 	beqz	a0,400068 <print+0x38>
  40004c:	00000000 	nop
  400050:	0c1000d5 	jal	400354 <SendByte>
  400054:	26100001 	addiu	s0,s0,1
  400058:	82040000 	lb	a0,0(s0)
  40005c:	00000000 	nop
  400060:	1480fffb 	bnez	a0,400050 <print+0x20>
  400064:	00000000 	nop
  400068:	8fbf0014 	lw	ra,20(sp)
  40006c:	8fb00010 	lw	s0,16(sp)
  400070:	03e00008 	jr	ra
  400074:	27bd0018 	addiu	sp,sp,24

00400078 <main>:
  400078:	27bdffe8 	addiu	sp,sp,-24
  40007c:	afb00010 	sw	s0,16(sp)
  400080:	3c101000 	lui	s0,0x1000
  400084:	afbf0014 	sw	ra,20(sp)
  400088:	26100000 	addiu	s0,s0,0
  40008c:	24040048 	li	a0,72
  400090:	0c1000d5 	jal	400354 <SendByte>
  400094:	26100001 	addiu	s0,s0,1
  400098:	82040000 	lb	a0,0(s0)
  40009c:	00000000 	nop
  4000a0:	1480fffb 	bnez	a0,400090 <main+0x18>
  4000a4:	00001021 	move	v0,zero
  4000a8:	8fbf0014 	lw	ra,20(sp)
  4000ac:	8fb00010 	lw	s0,16(sp)
  4000b0:	03e00008 	jr	ra
  4000b4:	27bd0018 	addiu	sp,sp,24
	...

004000c0 <nonRestoringDivision>:
  4000c0:	00003821 	move	a3,zero
  4000c4:	2403001f 	li	v1,31
  4000c8:	00001021 	move	v0,zero
  4000cc:	0810003b 	j	4000ec <nonRestoringDivision+0x2c>
  4000d0:	2409ffff 	li	t1,-1
  4000d4:	00451023 	subu	v0,v0,a1
  4000d8:	0440000d 	bltz	v0,400110 <nonRestoringDivision+0x50>
  4000dc:	00074040 	sll	t0,a3,0x1
  4000e0:	2463ffff 	addiu	v1,v1,-1
  4000e4:	1069000d 	beq	v1,t1,40011c <nonRestoringDivision+0x5c>
  4000e8:	35070001 	ori	a3,t0,0x1
  4000ec:	00644007 	srav	t0,a0,v1
  4000f0:	00021040 	sll	v0,v0,0x1
  4000f4:	31080001 	andi	t0,t0,0x1
  4000f8:	01021025 	or	v0,t0,v0
  4000fc:	0441fff5 	bgez	v0,4000d4 <nonRestoringDivision+0x14>
  400100:	00000000 	nop
  400104:	00451021 	addu	v0,v0,a1
  400108:	0441fff5 	bgez	v0,4000e0 <nonRestoringDivision+0x20>
  40010c:	00074040 	sll	t0,a3,0x1
  400110:	2463ffff 	addiu	v1,v1,-1
  400114:	1469fff5 	bne	v1,t1,4000ec <nonRestoringDivision+0x2c>
  400118:	00073840 	sll	a3,a3,0x1
  40011c:	04400003 	bltz	v0,40012c <nonRestoringDivision+0x6c>
  400120:	acc70000 	sw	a3,0(a2)
  400124:	03e00008 	jr	ra
  400128:	00000000 	nop
  40012c:	03e00008 	jr	ra
  400130:	00451021 	addu	v0,v0,a1

00400134 <modifiedBoothsMultiplication>:
  400134:	27bdffc0 	addiu	sp,sp,-64
  400138:	24020001 	li	v0,1
  40013c:	2403ffff 	li	v1,-1
  400140:	afa30018 	sw	v1,24(sp)
  400144:	afa30014 	sw	v1,20(sp)
  400148:	afa2003c 	sw	v0,60(sp)
  40014c:	afa20000 	sw	v0,0(sp)
  400150:	afa00004 	sw	zero,4(sp)
  400154:	afa00008 	sw	zero,8(sp)
  400158:	afa2000c 	sw	v0,12(sp)
  40015c:	afa20010 	sw	v0,16(sp)
  400160:	afa2001c 	sw	v0,28(sp)
  400164:	afa00020 	sw	zero,32(sp)
  400168:	afa00024 	sw	zero,36(sp)
  40016c:	afa00028 	sw	zero,40(sp)
  400170:	afa2002c 	sw	v0,44(sp)
  400174:	afa00030 	sw	zero,48(sp)
  400178:	afa20034 	sw	v0,52(sp)
  40017c:	afa20038 	sw	v0,56(sp)
  400180:	acc00000 	sw	zero,0(a2)
  400184:	00004821 	move	t1,zero
  400188:	00003821 	move	a3,zero
  40018c:	00001821 	move	v1,zero
  400190:	240b0001 	li	t3,1
  400194:	0810006f 	j	4001bc <modifiedBoothsMultiplication+0x88>
  400198:	240a001f 	li	t2,31
  40019c:	acc20000 	sw	v0,0(a2)
  4001a0:	03a84021 	addu	t0,sp,t0
  4001a4:	24630001 	addiu	v1,v1,1
  4001a8:	8d070020 	lw	a3,32(t0)
  4001ac:	106a0015 	beq	v1,t2,400204 <modifiedBoothsMultiplication+0xd0>
  4001b0:	00000000 	nop
  4001b4:	8cc90000 	lw	t1,0(a2)
  4001b8:	00052843 	sra	a1,a1,0x1
  4001bc:	30a80003 	andi	t0,a1,0x3
  4001c0:	00084040 	sll	t0,t0,0x1
  4001c4:	01074025 	or	t0,t0,a3
  4001c8:	00084080 	sll	t0,t0,0x2
  4001cc:	03a81021 	addu	v0,sp,t0
  4001d0:	8c470000 	lw	a3,0(v0)
  4001d4:	00000000 	nop
  4001d8:	00e41026 	xor	v0,a3,a0
  4001dc:	00471023 	subu	v0,v0,a3
  4001e0:	00621004 	sllv	v0,v0,v1
  4001e4:	14ebffed 	bne	a3,t3,40019c <modifiedBoothsMultiplication+0x68>
  4001e8:	00491021 	addu	v0,v0,t1
  4001ec:	03a84021 	addu	t0,sp,t0
  4001f0:	24630001 	addiu	v1,v1,1
  4001f4:	8cc20000 	lw	v0,0(a2)
  4001f8:	8d070020 	lw	a3,32(t0)
  4001fc:	146affed 	bne	v1,t2,4001b4 <modifiedBoothsMultiplication+0x80>
  400200:	00000000 	nop
  400204:	03e00008 	jr	ra
  400208:	27bd0040 	addiu	sp,sp,64

0040020c <division>:
  40020c:	0085182a 	slt	v1,a0,a1
  400210:	00801021 	move	v0,a0
  400214:	1460000c 	bnez	v1,400248 <division+0x3c>
  400218:	acc00000 	sw	zero,0(a2)
  40021c:	00852023 	subu	a0,a0,a1
  400220:	00054823 	negu	t1,a1
  400224:	24030001 	li	v1,1
  400228:	00801021 	move	v0,a0
  40022c:	00892021 	addu	a0,a0,t1
  400230:	00853821 	addu	a3,a0,a1
  400234:	00e5382a 	slt	a3,a3,a1
  400238:	00604021 	move	t0,v1
  40023c:	10e0fffa 	beqz	a3,400228 <division+0x1c>
  400240:	24630001 	addiu	v1,v1,1
  400244:	acc80000 	sw	t0,0(a2)
  400248:	03e00008 	jr	ra
  40024c:	00000000 	nop

00400250 <multiplication>:
  400250:	10800004 	beqz	a0,400264 <multiplication+0x14>
  400254:	acc00000 	sw	zero,0(a2)
  400258:	00a40018 	mult	a1,a0
  40025c:	00002012 	mflo	a0
  400260:	acc40000 	sw	a0,0(a2)
  400264:	03e00008 	jr	ra
  400268:	00000000 	nop

0040026c <strlen>:
  40026c:	80820000 	lb	v0,0(a0)
  400270:	00000000 	nop
  400274:	10400009 	beqz	v0,40029c <strlen+0x30>
  400278:	00000000 	nop
  40027c:	00801021 	move	v0,a0
  400280:	24420001 	addiu	v0,v0,1
  400284:	80430000 	lb	v1,0(v0)
  400288:	00000000 	nop
  40028c:	1460fffd 	bnez	v1,400284 <strlen+0x18>
  400290:	24420001 	addiu	v0,v0,1
  400294:	2442ffff 	addiu	v0,v0,-1
  400298:	00441023 	subu	v0,v0,a0
  40029c:	03e00008 	jr	ra
  4002a0:	00000000 	nop

004002a4 <strrev>:
  4002a4:	80860000 	lb	a2,0(a0)
  4002a8:	00000000 	nop
  4002ac:	10c00027 	beqz	a2,40034c <strrev+0xa8>
  4002b0:	00801021 	move	v0,a0
  4002b4:	00802821 	move	a1,a0
  4002b8:	24a50001 	addiu	a1,a1,1
  4002bc:	80a30000 	lb	v1,0(a1)
  4002c0:	00000000 	nop
  4002c4:	1460fffd 	bnez	v1,4002bc <strrev+0x18>
  4002c8:	24a50001 	addiu	a1,a1,1
  4002cc:	24a5ffff 	addiu	a1,a1,-1
  4002d0:	00a22823 	subu	a1,a1,v0
  4002d4:	24a5ffff 	addiu	a1,a1,-1
  4002d8:	00452821 	addu	a1,v0,a1
  4002dc:	0045182b 	sltu	v1,v0,a1
  4002e0:	10600018 	beqz	v1,400344 <strrev+0xa0>
  4002e4:	00401821 	move	v1,v0
  4002e8:	081000bd 	j	4002f4 <strrev+0x50>
  4002ec:	00000000 	nop
  4002f0:	80660000 	lb	a2,0(v1)
  4002f4:	90a70000 	lbu	a3,0(a1)
  4002f8:	00000000 	nop
  4002fc:	00c73026 	xor	a2,a2,a3
  400300:	00063600 	sll	a2,a2,0x18
  400304:	00063603 	sra	a2,a2,0x18
  400308:	a0660000 	sb	a2,0(v1)
  40030c:	90a70000 	lbu	a3,0(a1)
  400310:	00000000 	nop
  400314:	00c73026 	xor	a2,a2,a3
  400318:	00063600 	sll	a2,a2,0x18
  40031c:	00063603 	sra	a2,a2,0x18
  400320:	a0a60000 	sb	a2,0(a1)
  400324:	90670000 	lbu	a3,0(v1)
  400328:	24a5ffff 	addiu	a1,a1,-1
  40032c:	00c73026 	xor	a2,a2,a3
  400330:	a0660000 	sb	a2,0(v1)
  400334:	24630001 	addiu	v1,v1,1
  400338:	0065302b 	sltu	a2,v1,a1
  40033c:	14c0ffec 	bnez	a2,4002f0 <strrev+0x4c>
  400340:	00000000 	nop
  400344:	03e00008 	jr	ra
  400348:	00000000 	nop
  40034c:	081000b6 	j	4002d8 <strrev+0x34>
  400350:	2405ffff 	li	a1,-1

00400354 <SendByte>:
  400354:	00042600 	sll	a0,a0,0x18
  400358:	3c03ffff 	lui	v1,0xffff
  40035c:	00042603 	sra	a0,a0,0x18
  400360:	34630008 	ori	v1,v1,0x8
  400364:	8c620000 	lw	v0,0(v1)
  400368:	00000000 	nop
  40036c:	30420001 	andi	v0,v0,0x1
  400370:	1040fffc 	beqz	v0,400364 <SendByte+0x10>
  400374:	3c02ffff 	lui	v0,0xffff
  400378:	3442000c 	ori	v0,v0,0xc
  40037c:	ac440000 	sw	a0,0(v0)
  400380:	03e00008 	jr	ra
  400384:	00000000 	nop

00400388 <GetByte>:
  400388:	3c03ffff 	lui	v1,0xffff
  40038c:	8c620000 	lw	v0,0(v1)
  400390:	00000000 	nop
  400394:	30420001 	andi	v0,v0,0x1
  400398:	1040fffc 	beqz	v0,40038c <GetByte+0x4>
  40039c:	3c02ffff 	lui	v0,0xffff
  4003a0:	34420004 	ori	v0,v0,0x4
  4003a4:	8c420000 	lw	v0,0(v0)
  4003a8:	00000000 	nop
  4003ac:	00021600 	sll	v0,v0,0x18
  4003b0:	03e00008 	jr	ra
  4003b4:	00021603 	sra	v0,v0,0x18

004003b8 <runme>:
  4003b8:	0810001e 	j	400078 <main>
  4003bc:	00000000 	nop

004003c0 <int_to_string>:
  4003c0:	27bdfff0 	addiu	sp,sp,-16
  4003c4:	24030030 	li	v1,48
  4003c8:	a3a30000 	sb	v1,0(sp)
  4003cc:	24030031 	li	v1,49
  4003d0:	a3a30001 	sb	v1,1(sp)
  4003d4:	24030032 	li	v1,50
  4003d8:	a3a30002 	sb	v1,2(sp)
  4003dc:	24030033 	li	v1,51
  4003e0:	a3a30003 	sb	v1,3(sp)
  4003e4:	24030034 	li	v1,52
  4003e8:	a3a30004 	sb	v1,4(sp)
  4003ec:	24030035 	li	v1,53
  4003f0:	a3a30005 	sb	v1,5(sp)
  4003f4:	24030036 	li	v1,54
  4003f8:	a3a30006 	sb	v1,6(sp)
  4003fc:	24030037 	li	v1,55
  400400:	a3a30007 	sb	v1,7(sp)
  400404:	24030038 	li	v1,56
  400408:	a3a30008 	sb	v1,8(sp)
  40040c:	24030039 	li	v1,57
  400410:	a3a30009 	sb	v1,9(sp)
  400414:	2403000a 	li	v1,10
  400418:	00a01021 	move	v0,a1
  40041c:	a0a30000 	sb	v1,0(a1)
  400420:	240b0001 	li	t3,1
  400424:	240affff 	li	t2,-1
  400428:	00003821 	move	a3,zero
  40042c:	2403001f 	li	v1,31
  400430:	08100116 	j	400458 <int_to_string+0x98>
  400434:	00002821 	move	a1,zero
  400438:	01002821 	move	a1,t0
  40043c:	00073840 	sll	a3,a3,0x1
  400440:	04a00002 	bltz	a1,40044c <int_to_string+0x8c>
  400444:	34e80001 	ori	t0,a3,0x1
  400448:	01003821 	move	a3,t0
  40044c:	2463ffff 	addiu	v1,v1,-1
  400450:	106a000a 	beq	v1,t2,40047c <int_to_string+0xbc>
  400454:	00000000 	nop
  400458:	00644007 	srav	t0,a0,v1
  40045c:	31080001 	andi	t0,t0,0x1
  400460:	00052840 	sll	a1,a1,0x1
  400464:	01052825 	or	a1,t0,a1
  400468:	00a64821 	addu	t1,a1,a2
  40046c:	04a1fff2 	bgez	a1,400438 <int_to_string+0x78>
  400470:	00a64023 	subu	t0,a1,a2
  400474:	0810010f 	j	40043c <int_to_string+0x7c>
  400478:	01202821 	move	a1,t1
  40047c:	04a10002 	bgez	a1,400488 <int_to_string+0xc8>
  400480:	00000000 	nop
  400484:	00a62821 	addu	a1,a1,a2
  400488:	03a52821 	addu	a1,sp,a1
  40048c:	90a40000 	lbu	a0,0(a1)
  400490:	004b1821 	addu	v1,v0,t3
  400494:	a0640000 	sb	a0,0(v1)
  400498:	256b0001 	addiu	t3,t3,1
  40049c:	1ce0ffe2 	bgtz	a3,400428 <int_to_string+0x68>
  4004a0:	00e02021 	move	a0,a3
  4004a4:	004b5821 	addu	t3,v0,t3
  4004a8:	a1600000 	sb	zero,0(t3)
  4004ac:	80450000 	lb	a1,0(v0)
  4004b0:	00000000 	nop
  4004b4:	10a00026 	beqz	a1,400550 <int_to_string+0x190>
  4004b8:	00401821 	move	v1,v0
  4004bc:	24630001 	addiu	v1,v1,1
  4004c0:	80640000 	lb	a0,0(v1)
  4004c4:	00000000 	nop
  4004c8:	1480fffd 	bnez	a0,4004c0 <int_to_string+0x100>
  4004cc:	24630001 	addiu	v1,v1,1
  4004d0:	2463ffff 	addiu	v1,v1,-1
  4004d4:	00622023 	subu	a0,v1,v0
  4004d8:	2484ffff 	addiu	a0,a0,-1
  4004dc:	00442021 	addu	a0,v0,a0
  4004e0:	0044182b 	sltu	v1,v0,a0
  4004e4:	10600018 	beqz	v1,400548 <int_to_string+0x188>
  4004e8:	00000000 	nop
  4004ec:	0810013e 	j	4004f8 <int_to_string+0x138>
  4004f0:	00401821 	move	v1,v0
  4004f4:	80650000 	lb	a1,0(v1)
  4004f8:	90860000 	lbu	a2,0(a0)
  4004fc:	00000000 	nop
  400500:	00a62826 	xor	a1,a1,a2
  400504:	00052e00 	sll	a1,a1,0x18
  400508:	00052e03 	sra	a1,a1,0x18
  40050c:	a0650000 	sb	a1,0(v1)
  400510:	90860000 	lbu	a2,0(a0)
  400514:	00000000 	nop
  400518:	00a62826 	xor	a1,a1,a2
  40051c:	00052e00 	sll	a1,a1,0x18
  400520:	00052e03 	sra	a1,a1,0x18
  400524:	a0850000 	sb	a1,0(a0)
  400528:	90660000 	lbu	a2,0(v1)
  40052c:	2484ffff 	addiu	a0,a0,-1
  400530:	00a62826 	xor	a1,a1,a2
  400534:	a0650000 	sb	a1,0(v1)
  400538:	24630001 	addiu	v1,v1,1
  40053c:	0064282b 	sltu	a1,v1,a0
  400540:	14a0ffec 	bnez	a1,4004f4 <int_to_string+0x134>
  400544:	00000000 	nop
  400548:	03e00008 	jr	ra
  40054c:	27bd0010 	addiu	sp,sp,16
  400550:	08100137 	j	4004dc <int_to_string+0x11c>
  400554:	2404ffff 	li	a0,-1
	...

Disassembly of section RAM:

10000000 <_gp-0x8010>:
10000000:	6c6c6548 	0x6c6c6548
10000004:	6f57206f 	0x6f57206f
10000008:	0a646c72 	j	1991b1c8 <_gp+0x99131b8>
1000000c:	00000000 	nop

Disassembly of section .gnu.attributes:

00000000 <.gnu.attributes>:
   0:	00000f41 	0xf41
   4:	756e6700 	jalx	5b99c00 <int_to_string+0x5799840>
   8:	00070100 	sll	zero,a3,0x4
   c:	03040000 	0x3040000
