
test:     file format elf32-tradlittlemips


Disassembly of section IROM:

00400000 <__start>:
  400000:	3c1c1001 	lui	gp,0x1001
  400004:	279c8030 	addiu	gp,gp,-32720
  400008:	3c1d7fff 	lui	sp,0x7fff
  40000c:	37bdfffc 	ori	sp,sp,0xfffc
  400010:	0000d020 	add	k0,zero,zero
  400014:	00001820 	add	v1,zero,zero
  400018:	0c100146 	jal	400518 <runme>
  40001c:	00000000 	nop

00400020 <__start_loop>:
	...
  400028:	0c100008 	jal	400020 <__start_loop>
  40002c:	00000000 	nop

00400030 <print>:
  400030:	27bdffe8 	addiu	sp,sp,-24
  400034:	afb00010 	sw	s0,16(sp)
  400038:	afbf0014 	sw	ra,20(sp)
  40003c:	00808021 	move	s0,a0
  400040:	80840000 	lb	a0,0(a0)
  400044:	00000000 	nop
  400048:	10800007 	beqz	a0,400068 <print+0x38>
  40004c:	00000000 	nop
  400050:	0c10012d 	jal	4004b4 <SendByte>
  400054:	26100001 	addiu	s0,s0,1
  400058:	82040000 	lb	a0,0(s0)
  40005c:	00000000 	nop
  400060:	1480fffb 	bnez	a0,400050 <print+0x20>
  400064:	00000000 	nop
  400068:	8fbf0014 	lw	ra,20(sp)
  40006c:	8fb00010 	lw	s0,16(sp)
  400070:	03e00008 	jr	ra
  400074:	27bd0018 	addiu	sp,sp,24

00400078 <sqrt>:
  400078:	27bdffc0 	addiu	sp,sp,-64
  40007c:	afb20038 	sw	s2,56(sp)
  400080:	27b20010 	addiu	s2,sp,16
  400084:	02402821 	move	a1,s2
  400088:	2406000a 	li	a2,10
  40008c:	afb10034 	sw	s1,52(sp)
  400090:	afb00030 	sw	s0,48(sp)
  400094:	afbf003c 	sw	ra,60(sp)
  400098:	0c10017c 	jal	4005f0 <int_to_string>
  40009c:	00808021 	move	s0,a0
  4000a0:	80440000 	lb	a0,0(v0)
  4000a4:	00000000 	nop
  4000a8:	10800007 	beqz	a0,4000c8 <sqrt+0x50>
  4000ac:	00408821 	move	s1,v0
  4000b0:	0c10012d 	jal	4004b4 <SendByte>
  4000b4:	26310001 	addiu	s1,s1,1
  4000b8:	82240000 	lb	a0,0(s1)
  4000bc:	00000000 	nop
  4000c0:	1480fffb 	bnez	a0,4000b0 <sqrt+0x38>
  4000c4:	00000000 	nop
  4000c8:	3c024000 	lui	v0,0x4000
  4000cc:	0202102a 	slt	v0,s0,v0
  4000d0:	10400007 	beqz	v0,4000f0 <sqrt+0x78>
  4000d4:	3c024000 	lui	v0,0x4000
  4000d8:	00021083 	sra	v0,v0,0x2
  4000dc:	0202182a 	slt	v1,s0,v0
  4000e0:	1460fffd 	bnez	v1,4000d8 <sqrt+0x60>
  4000e4:	00000000 	nop
  4000e8:	10400010 	beqz	v0,40012c <sqrt+0xb4>
  4000ec:	00008821 	move	s1,zero
  4000f0:	00008821 	move	s1,zero
  4000f4:	02222821 	addu	a1,s1,v0
  4000f8:	00112043 	sra	a0,s1,0x1
  4000fc:	0205182a 	slt	v1,s0,a1
  400100:	00808821 	move	s1,a0
  400104:	02052823 	subu	a1,s0,a1
  400108:	14600002 	bnez	v1,400114 <sqrt+0x9c>
  40010c:	00822021 	addu	a0,a0,v0
  400110:	00808821 	move	s1,a0
  400114:	14600002 	bnez	v1,400120 <sqrt+0xa8>
  400118:	00000000 	nop
  40011c:	00a08021 	move	s0,a1
  400120:	00021083 	sra	v0,v0,0x2
  400124:	1440fff4 	bnez	v0,4000f8 <sqrt+0x80>
  400128:	02222821 	addu	a1,s1,v0
  40012c:	3c101000 	lui	s0,0x1000
  400130:	26100000 	addiu	s0,s0,0
  400134:	2404003d 	li	a0,61
  400138:	0c10012d 	jal	4004b4 <SendByte>
  40013c:	26100001 	addiu	s0,s0,1
  400140:	82040000 	lb	a0,0(s0)
  400144:	00000000 	nop
  400148:	1480fffb 	bnez	a0,400138 <sqrt+0xc0>
  40014c:	02402821 	move	a1,s2
  400150:	02202021 	move	a0,s1
  400154:	0c10017c 	jal	4005f0 <int_to_string>
  400158:	2406000a 	li	a2,10
  40015c:	80440000 	lb	a0,0(v0)
  400160:	00000000 	nop
  400164:	10800007 	beqz	a0,400184 <sqrt+0x10c>
  400168:	00408021 	move	s0,v0
  40016c:	0c10012d 	jal	4004b4 <SendByte>
  400170:	26100001 	addiu	s0,s0,1
  400174:	82040000 	lb	a0,0(s0)
  400178:	00000000 	nop
  40017c:	1480fffb 	bnez	a0,40016c <sqrt+0xf4>
  400180:	00000000 	nop
  400184:	3c101000 	lui	s0,0x1000
  400188:	26100004 	addiu	s0,s0,4
  40018c:	24040020 	li	a0,32
  400190:	0c10012d 	jal	4004b4 <SendByte>
  400194:	26100001 	addiu	s0,s0,1
  400198:	82040000 	lb	a0,0(s0)
  40019c:	00000000 	nop
  4001a0:	1480fffb 	bnez	a0,400190 <sqrt+0x118>
  4001a4:	02201021 	move	v0,s1
  4001a8:	8fbf003c 	lw	ra,60(sp)
  4001ac:	8fb20038 	lw	s2,56(sp)
  4001b0:	8fb10034 	lw	s1,52(sp)
  4001b4:	8fb00030 	lw	s0,48(sp)
  4001b8:	03e00008 	jr	ra
  4001bc:	27bd0040 	addiu	sp,sp,64

004001c0 <main>:
  4001c0:	27bdffe0 	addiu	sp,sp,-32
  4001c4:	afbf001c 	sw	ra,28(sp)
  4001c8:	0c10013a 	jal	4004e8 <GetByte>
  4001cc:	afb00018 	sw	s0,24(sp)
  4001d0:	00402021 	move	a0,v0
  4001d4:	24050004 	li	a1,4
  4001d8:	0c1000a0 	jal	400280 <nonRestoringDivision>
  4001dc:	27a60010 	addiu	a2,sp,16
  4001e0:	24030001 	li	v1,1
  4001e4:	1043001e 	beq	v0,v1,400260 <main+0xa0>
  4001e8:	28430002 	slti	v1,v0,2
  4001ec:	1460001e 	bnez	v1,400268 <main+0xa8>
  4001f0:	24030002 	li	v1,2
  4001f4:	10430010 	beq	v0,v1,400238 <main+0x78>
  4001f8:	24030003 	li	v1,3
  4001fc:	1043000f 	beq	v0,v1,40023c <main+0x7c>
  400200:	24041c39 	li	a0,7225
  400204:	3c101000 	lui	s0,0x1000
  400208:	26100010 	addiu	s0,s0,16
  40020c:	24040049 	li	a0,73
  400210:	0c10012d 	jal	4004b4 <SendByte>
  400214:	26100001 	addiu	s0,s0,1
  400218:	82040000 	lb	a0,0(s0)
  40021c:	00000000 	nop
  400220:	1480fffb 	bnez	a0,400210 <main+0x50>
  400224:	00000000 	nop
  400228:	8fbf001c 	lw	ra,28(sp)
  40022c:	8fb00018 	lw	s0,24(sp)
  400230:	03e00008 	jr	ra
  400234:	27bd0020 	addiu	sp,sp,32
  400238:	24041104 	li	a0,4356
  40023c:	3c050040 	lui	a1,0x40
  400240:	3c060040 	lui	a2,0x40
  400244:	24a50078 	addiu	a1,a1,120
  400248:	0c100148 	jal	400520 <func1>
  40024c:	24c602f4 	addiu	a2,a2,756
  400250:	8fbf001c 	lw	ra,28(sp)
  400254:	8fb00018 	lw	s0,24(sp)
  400258:	03e00008 	jr	ra
  40025c:	27bd0020 	addiu	sp,sp,32
  400260:	0810008f 	j	40023c <main+0x7c>
  400264:	24040f81 	li	a0,3969
  400268:	1440ffe7 	bnez	v0,400208 <main+0x48>
  40026c:	3c101000 	lui	s0,0x1000
  400270:	0810008f 	j	40023c <main+0x7c>
  400274:	240404c9 	li	a0,1225
	...

00400280 <nonRestoringDivision>:
  400280:	00003821 	move	a3,zero
  400284:	2403001f 	li	v1,31
  400288:	00001021 	move	v0,zero
  40028c:	081000ab 	j	4002ac <nonRestoringDivision+0x2c>
  400290:	2409ffff 	li	t1,-1
  400294:	00451023 	subu	v0,v0,a1
  400298:	0440000d 	bltz	v0,4002d0 <nonRestoringDivision+0x50>
  40029c:	00074040 	sll	t0,a3,0x1
  4002a0:	2463ffff 	addiu	v1,v1,-1
  4002a4:	1069000d 	beq	v1,t1,4002dc <nonRestoringDivision+0x5c>
  4002a8:	35070001 	ori	a3,t0,0x1
  4002ac:	00644007 	srav	t0,a0,v1
  4002b0:	00021040 	sll	v0,v0,0x1
  4002b4:	31080001 	andi	t0,t0,0x1
  4002b8:	01021025 	or	v0,t0,v0
  4002bc:	0441fff5 	bgez	v0,400294 <nonRestoringDivision+0x14>
  4002c0:	00000000 	nop
  4002c4:	00451021 	addu	v0,v0,a1
  4002c8:	0441fff5 	bgez	v0,4002a0 <nonRestoringDivision+0x20>
  4002cc:	00074040 	sll	t0,a3,0x1
  4002d0:	2463ffff 	addiu	v1,v1,-1
  4002d4:	1469fff5 	bne	v1,t1,4002ac <nonRestoringDivision+0x2c>
  4002d8:	00073840 	sll	a3,a3,0x1
  4002dc:	04400003 	bltz	v0,4002ec <nonRestoringDivision+0x6c>
  4002e0:	acc70000 	sw	a3,0(a2)
  4002e4:	03e00008 	jr	ra
  4002e8:	00000000 	nop
  4002ec:	03e00008 	jr	ra
  4002f0:	00451021 	addu	v0,v0,a1

004002f4 <modifiedBoothsMultiplication>:
  4002f4:	27bdffc0 	addiu	sp,sp,-64
  4002f8:	24020001 	li	v0,1
  4002fc:	2403ffff 	li	v1,-1
  400300:	afa30018 	sw	v1,24(sp)
  400304:	afa30014 	sw	v1,20(sp)
  400308:	afa2003c 	sw	v0,60(sp)
  40030c:	afa20000 	sw	v0,0(sp)
  400310:	afa00004 	sw	zero,4(sp)
  400314:	afa00008 	sw	zero,8(sp)
  400318:	afa2000c 	sw	v0,12(sp)
  40031c:	afa20010 	sw	v0,16(sp)
  400320:	afa2001c 	sw	v0,28(sp)
  400324:	afa00020 	sw	zero,32(sp)
  400328:	afa00024 	sw	zero,36(sp)
  40032c:	afa00028 	sw	zero,40(sp)
  400330:	afa2002c 	sw	v0,44(sp)
  400334:	afa00030 	sw	zero,48(sp)
  400338:	afa20034 	sw	v0,52(sp)
  40033c:	afa20038 	sw	v0,56(sp)
  400340:	acc00000 	sw	zero,0(a2)
  400344:	00004821 	move	t1,zero
  400348:	00003821 	move	a3,zero
  40034c:	00001821 	move	v1,zero
  400350:	240b0001 	li	t3,1
  400354:	081000df 	j	40037c <modifiedBoothsMultiplication+0x88>
  400358:	240a001f 	li	t2,31
  40035c:	acc20000 	sw	v0,0(a2)
  400360:	03a84021 	addu	t0,sp,t0
  400364:	24630001 	addiu	v1,v1,1
  400368:	8d070020 	lw	a3,32(t0)
  40036c:	106a0015 	beq	v1,t2,4003c4 <modifiedBoothsMultiplication+0xd0>
  400370:	00000000 	nop
  400374:	8cc90000 	lw	t1,0(a2)
  400378:	00052843 	sra	a1,a1,0x1
  40037c:	30a80003 	andi	t0,a1,0x3
  400380:	00084040 	sll	t0,t0,0x1
  400384:	01074025 	or	t0,t0,a3
  400388:	00084080 	sll	t0,t0,0x2
  40038c:	03a81021 	addu	v0,sp,t0
  400390:	8c470000 	lw	a3,0(v0)
  400394:	00000000 	nop
  400398:	00e41026 	xor	v0,a3,a0
  40039c:	00471023 	subu	v0,v0,a3
  4003a0:	00621004 	sllv	v0,v0,v1
  4003a4:	14ebffed 	bne	a3,t3,40035c <modifiedBoothsMultiplication+0x68>
  4003a8:	00491021 	addu	v0,v0,t1
  4003ac:	03a84021 	addu	t0,sp,t0
  4003b0:	24630001 	addiu	v1,v1,1
  4003b4:	8cc20000 	lw	v0,0(a2)
  4003b8:	8d070020 	lw	a3,32(t0)
  4003bc:	146affed 	bne	v1,t2,400374 <modifiedBoothsMultiplication+0x80>
  4003c0:	00000000 	nop
  4003c4:	03e00008 	jr	ra
  4003c8:	27bd0040 	addiu	sp,sp,64

004003cc <strlen>:
  4003cc:	80820000 	lb	v0,0(a0)
  4003d0:	00000000 	nop
  4003d4:	10400009 	beqz	v0,4003fc <strlen+0x30>
  4003d8:	00000000 	nop
  4003dc:	00801021 	move	v0,a0
  4003e0:	24420001 	addiu	v0,v0,1
  4003e4:	80430000 	lb	v1,0(v0)
  4003e8:	00000000 	nop
  4003ec:	1460fffd 	bnez	v1,4003e4 <strlen+0x18>
  4003f0:	24420001 	addiu	v0,v0,1
  4003f4:	2442ffff 	addiu	v0,v0,-1
  4003f8:	00441023 	subu	v0,v0,a0
  4003fc:	03e00008 	jr	ra
  400400:	00000000 	nop

00400404 <strrev>:
  400404:	80860000 	lb	a2,0(a0)
  400408:	00000000 	nop
  40040c:	10c00027 	beqz	a2,4004ac <strrev+0xa8>
  400410:	00801021 	move	v0,a0
  400414:	00802821 	move	a1,a0
  400418:	24a50001 	addiu	a1,a1,1
  40041c:	80a30000 	lb	v1,0(a1)
  400420:	00000000 	nop
  400424:	1460fffd 	bnez	v1,40041c <strrev+0x18>
  400428:	24a50001 	addiu	a1,a1,1
  40042c:	24a5ffff 	addiu	a1,a1,-1
  400430:	00a22823 	subu	a1,a1,v0
  400434:	24a5ffff 	addiu	a1,a1,-1
  400438:	00452821 	addu	a1,v0,a1
  40043c:	0045182b 	sltu	v1,v0,a1
  400440:	10600018 	beqz	v1,4004a4 <strrev+0xa0>
  400444:	00401821 	move	v1,v0
  400448:	08100115 	j	400454 <strrev+0x50>
  40044c:	00000000 	nop
  400450:	80660000 	lb	a2,0(v1)
  400454:	90a70000 	lbu	a3,0(a1)
  400458:	00000000 	nop
  40045c:	00c73026 	xor	a2,a2,a3
  400460:	00063600 	sll	a2,a2,0x18
  400464:	00063603 	sra	a2,a2,0x18
  400468:	a0660000 	sb	a2,0(v1)
  40046c:	90a70000 	lbu	a3,0(a1)
  400470:	00000000 	nop
  400474:	00c73026 	xor	a2,a2,a3
  400478:	00063600 	sll	a2,a2,0x18
  40047c:	00063603 	sra	a2,a2,0x18
  400480:	a0a60000 	sb	a2,0(a1)
  400484:	90670000 	lbu	a3,0(v1)
  400488:	24a5ffff 	addiu	a1,a1,-1
  40048c:	00c73026 	xor	a2,a2,a3
  400490:	a0660000 	sb	a2,0(v1)
  400494:	24630001 	addiu	v1,v1,1
  400498:	0065302b 	sltu	a2,v1,a1
  40049c:	14c0ffec 	bnez	a2,400450 <strrev+0x4c>
  4004a0:	00000000 	nop
  4004a4:	03e00008 	jr	ra
  4004a8:	00000000 	nop
  4004ac:	0810010e 	j	400438 <strrev+0x34>
  4004b0:	2405ffff 	li	a1,-1

004004b4 <SendByte>:
  4004b4:	00042600 	sll	a0,a0,0x18
  4004b8:	3c03ffff 	lui	v1,0xffff
  4004bc:	00042603 	sra	a0,a0,0x18
  4004c0:	34630008 	ori	v1,v1,0x8
  4004c4:	8c620000 	lw	v0,0(v1)
  4004c8:	00000000 	nop
  4004cc:	30420001 	andi	v0,v0,0x1
  4004d0:	1040fffc 	beqz	v0,4004c4 <SendByte+0x10>
  4004d4:	3c02ffff 	lui	v0,0xffff
  4004d8:	3442000c 	ori	v0,v0,0xc
  4004dc:	ac440000 	sw	a0,0(v0)
  4004e0:	03e00008 	jr	ra
  4004e4:	00000000 	nop

004004e8 <GetByte>:
  4004e8:	3c03ffff 	lui	v1,0xffff
  4004ec:	8c620000 	lw	v0,0(v1)
  4004f0:	00000000 	nop
  4004f4:	30420001 	andi	v0,v0,0x1
  4004f8:	1040fffc 	beqz	v0,4004ec <GetByte+0x4>
  4004fc:	3c02ffff 	lui	v0,0xffff
  400500:	34420004 	ori	v0,v0,0x4
  400504:	8c420000 	lw	v0,0(v0)
  400508:	00000000 	nop
  40050c:	00021600 	sll	v0,v0,0x18
  400510:	03e00008 	jr	ra
  400514:	00021603 	sra	v0,v0,0x18

00400518 <runme>:
  400518:	08100070 	j	4001c0 <main>
  40051c:	00000000 	nop

00400520 <func1>:
  400520:	27bdffd8 	addiu	sp,sp,-40
  400524:	afbf0024 	sw	ra,36(sp)
  400528:	afb20020 	sw	s2,32(sp)
  40052c:	afb1001c 	sw	s1,28(sp)
  400530:	afb00018 	sw	s0,24(sp)
  400534:	00809021 	move	s2,a0
  400538:	00a0f809 	jalr	a1
  40053c:	00c08021 	move	s0,a2
  400540:	00408821 	move	s1,v0
  400544:	00402021 	move	a0,v0
  400548:	00402821 	move	a1,v0
  40054c:	0200f809 	jalr	s0
  400550:	27a60010 	addiu	a2,sp,16
  400554:	02402021 	move	a0,s2
  400558:	02202821 	move	a1,s1
  40055c:	0200f809 	jalr	s0
  400560:	27a60014 	addiu	a2,sp,20
  400564:	3c020040 	lui	v0,0x40
  400568:	24420280 	addiu	v0,v0,640
  40056c:	12020017 	beq	s0,v0,4005cc <func1+0xac>
  400570:	3c020040 	lui	v0,0x40
  400574:	244202f4 	addiu	v0,v0,756
  400578:	12020007 	beq	s0,v0,400598 <func1+0x78>
  40057c:	00000000 	nop
  400580:	8fbf0024 	lw	ra,36(sp)
  400584:	8fb20020 	lw	s2,32(sp)
  400588:	8fb1001c 	lw	s1,28(sp)
  40058c:	8fb00018 	lw	s0,24(sp)
  400590:	03e00008 	jr	ra
  400594:	27bd0028 	addiu	sp,sp,40
  400598:	8fa20010 	lw	v0,16(sp)
  40059c:	00000000 	nop
  4005a0:	1052000e 	beq	v0,s2,4005dc <func1+0xbc>
  4005a4:	00000000 	nop
  4005a8:	3c041000 	lui	a0,0x1000
  4005ac:	0c10000c 	jal	400030 <print>
  4005b0:	24840028 	addiu	a0,a0,40
  4005b4:	8fbf0024 	lw	ra,36(sp)
  4005b8:	8fb20020 	lw	s2,32(sp)
  4005bc:	8fb1001c 	lw	s1,28(sp)
  4005c0:	8fb00018 	lw	s0,24(sp)
  4005c4:	03e00008 	jr	ra
  4005c8:	27bd0028 	addiu	sp,sp,40
  4005cc:	8fa20014 	lw	v0,20(sp)
  4005d0:	00000000 	nop
  4005d4:	1622fff4 	bne	s1,v0,4005a8 <func1+0x88>
  4005d8:	00000000 	nop
  4005dc:	3c041000 	lui	a0,0x1000
  4005e0:	0c10000c 	jal	400030 <print>
  4005e4:	24840020 	addiu	a0,a0,32
  4005e8:	08100160 	j	400580 <func1+0x60>
  4005ec:	00000000 	nop

004005f0 <int_to_string>:
  4005f0:	27bdfff0 	addiu	sp,sp,-16
  4005f4:	24030030 	li	v1,48
  4005f8:	a3a30000 	sb	v1,0(sp)
  4005fc:	24030031 	li	v1,49
  400600:	a3a30001 	sb	v1,1(sp)
  400604:	24030032 	li	v1,50
  400608:	a3a30002 	sb	v1,2(sp)
  40060c:	24030033 	li	v1,51
  400610:	a3a30003 	sb	v1,3(sp)
  400614:	24030034 	li	v1,52
  400618:	a3a30004 	sb	v1,4(sp)
  40061c:	24030035 	li	v1,53
  400620:	a3a30005 	sb	v1,5(sp)
  400624:	24030036 	li	v1,54
  400628:	a3a30006 	sb	v1,6(sp)
  40062c:	24030037 	li	v1,55
  400630:	a3a30007 	sb	v1,7(sp)
  400634:	24030038 	li	v1,56
  400638:	a3a30008 	sb	v1,8(sp)
  40063c:	24030039 	li	v1,57
  400640:	a3a30009 	sb	v1,9(sp)
  400644:	2403000a 	li	v1,10
  400648:	00a01021 	move	v0,a1
  40064c:	a0a30000 	sb	v1,0(a1)
  400650:	240b0001 	li	t3,1
  400654:	240affff 	li	t2,-1
  400658:	00003821 	move	a3,zero
  40065c:	2403001f 	li	v1,31
  400660:	081001a2 	j	400688 <int_to_string+0x98>
  400664:	00002821 	move	a1,zero
  400668:	01002821 	move	a1,t0
  40066c:	00073840 	sll	a3,a3,0x1
  400670:	04a00002 	bltz	a1,40067c <int_to_string+0x8c>
  400674:	34e80001 	ori	t0,a3,0x1
  400678:	01003821 	move	a3,t0
  40067c:	2463ffff 	addiu	v1,v1,-1
  400680:	106a000a 	beq	v1,t2,4006ac <int_to_string+0xbc>
  400684:	00000000 	nop
  400688:	00644007 	srav	t0,a0,v1
  40068c:	31080001 	andi	t0,t0,0x1
  400690:	00052840 	sll	a1,a1,0x1
  400694:	01052825 	or	a1,t0,a1
  400698:	00a64821 	addu	t1,a1,a2
  40069c:	04a1fff2 	bgez	a1,400668 <int_to_string+0x78>
  4006a0:	00a64023 	subu	t0,a1,a2
  4006a4:	0810019b 	j	40066c <int_to_string+0x7c>
  4006a8:	01202821 	move	a1,t1
  4006ac:	04a10002 	bgez	a1,4006b8 <int_to_string+0xc8>
  4006b0:	00000000 	nop
  4006b4:	00a62821 	addu	a1,a1,a2
  4006b8:	03a52821 	addu	a1,sp,a1
  4006bc:	90a40000 	lbu	a0,0(a1)
  4006c0:	004b1821 	addu	v1,v0,t3
  4006c4:	a0640000 	sb	a0,0(v1)
  4006c8:	256b0001 	addiu	t3,t3,1
  4006cc:	1ce0ffe2 	bgtz	a3,400658 <int_to_string+0x68>
  4006d0:	00e02021 	move	a0,a3
  4006d4:	004b5821 	addu	t3,v0,t3
  4006d8:	a1600000 	sb	zero,0(t3)
  4006dc:	80450000 	lb	a1,0(v0)
  4006e0:	00000000 	nop
  4006e4:	10a00026 	beqz	a1,400780 <int_to_string+0x190>
  4006e8:	00401821 	move	v1,v0
  4006ec:	24630001 	addiu	v1,v1,1
  4006f0:	80640000 	lb	a0,0(v1)
  4006f4:	00000000 	nop
  4006f8:	1480fffd 	bnez	a0,4006f0 <int_to_string+0x100>
  4006fc:	24630001 	addiu	v1,v1,1
  400700:	2463ffff 	addiu	v1,v1,-1
  400704:	00622023 	subu	a0,v1,v0
  400708:	2484ffff 	addiu	a0,a0,-1
  40070c:	00442021 	addu	a0,v0,a0
  400710:	0044182b 	sltu	v1,v0,a0
  400714:	10600018 	beqz	v1,400778 <int_to_string+0x188>
  400718:	00000000 	nop
  40071c:	081001ca 	j	400728 <int_to_string+0x138>
  400720:	00401821 	move	v1,v0
  400724:	80650000 	lb	a1,0(v1)
  400728:	90860000 	lbu	a2,0(a0)
  40072c:	00000000 	nop
  400730:	00a62826 	xor	a1,a1,a2
  400734:	00052e00 	sll	a1,a1,0x18
  400738:	00052e03 	sra	a1,a1,0x18
  40073c:	a0650000 	sb	a1,0(v1)
  400740:	90860000 	lbu	a2,0(a0)
  400744:	00000000 	nop
  400748:	00a62826 	xor	a1,a1,a2
  40074c:	00052e00 	sll	a1,a1,0x18
  400750:	00052e03 	sra	a1,a1,0x18
  400754:	a0850000 	sb	a1,0(a0)
  400758:	90660000 	lbu	a2,0(v1)
  40075c:	2484ffff 	addiu	a0,a0,-1
  400760:	00a62826 	xor	a1,a1,a2
  400764:	a0650000 	sb	a1,0(v1)
  400768:	24630001 	addiu	v1,v1,1
  40076c:	0064282b 	sltu	a1,v1,a0
  400770:	14a0ffec 	bnez	a1,400724 <int_to_string+0x134>
  400774:	00000000 	nop
  400778:	03e00008 	jr	ra
  40077c:	27bd0010 	addiu	sp,sp,16
  400780:	081001c3 	j	40070c <int_to_string+0x11c>
  400784:	2404ffff 	li	a0,-1
	...

Disassembly of section RAM:

10000000 <_gp-0x8030>:
10000000:	0000003d 	0x3d
10000004:	75717320 	jalx	15c5cc80 <_gp+0x5c54c50>
10000008:	64657261 	0x64657261
1000000c:	0000000a 	0xa
10000010:	61766e49 	0x61766e49
10000014:	2064696c 	addi	a0,v1,26988
10000018:	75706e69 	jalx	15c1b9a4 <_gp+0x5c13974>
1000001c:	00000a74 	0xa74
10000020:	6b726f57 	0x6b726f57
10000024:	00000073 	0x73
10000028:	6c696146 	0x6c696146
1000002c:	00000073 	0x73
